; Function Attrs: mustprogress noreturn uwtable
define internal fastcc void @_ZN6Assimp3FBX12_GLOBAL__N_113TokenizeErrorERKNSt7__cxx1112basic_stringIcSt11char_traitsIcESaIcEEEjj(ptr noundef nonnull align 8 dereferenceable(32) %0, i32 noundef %1, i32 noundef %2) unnamed_addr #4 personality ptr @__gxx_personality_v0 {
  %4 = alloca %"class.std::__cxx11::basic_string", align 8
  %5 = tail call ptr @__cxa_allocate_exception(i64 16) #17
  call void @llvm.lifetime.start.p0(i64 32, ptr nonnull %4) #17
  invoke void @_ZN6Assimp3FBX4Util20GetLineAndColumnTextB5cxx11Ejj(ptr dead_on_unwind nonnull writable sret(%"class.std::__cxx11::basic_string") align 8 %4, i32 noundef %1, i32 noundef %2)
          to label %6 unwind label %_ZNSt7__cxx1112basic_stringIcSt11char_traitsIcESaIcEED2Ev.exit.thread

6:                                                ; preds = %3
  invoke void @_ZN17DeadlyImportErrorC2IJRA13_KcNSt7__cxx1112basic_stringIcSt11char_traitsIcESaIcEEERKS9_EEEDpOT_(ptr noundef nonnull align 8 dereferenceable(16) %5, ptr noundef nonnull align 1 dereferenceable(13) @.str.6, ptr noundef nonnull align 8 dereferenceable(32) %4, ptr noundef nonnull align 8 dereferenceable(32) %0)
          to label %7 unwind label %9

7:                                                ; preds = %6
  invoke void @__cxa_throw(ptr nonnull %5, ptr nonnull @_ZTI17DeadlyImportError, ptr nonnull @_ZNSt13runtime_errorD2Ev) #18
          to label %21 unwind label %9

_ZNSt7__cxx1112basic_stringIcSt11char_traitsIcESaIcEED2Ev.exit.thread: ; preds = %3
  %8 = landingpad { ptr, i32 }
          cleanup
  call void @llvm.lifetime.end.p0(i64 32, ptr nonnull %4) #17
  br label %19

9:                                                ; preds = %7, %6
  %.0 = phi i1 [ false, %7 ], [ true, %6 ]
  %10 = landingpad { ptr, i32 }
          cleanup
  %11 = load ptr, ptr %4, align 8
  %12 = getelementptr inbounds nuw i8, ptr %4, i64 16
  %13 = icmp eq ptr %11, %12
  br i1 %13, label %_ZNKSt7__cxx1112basic_stringIcSt11char_traitsIcESaIcEE11_M_is_localEv.exit.thread.i.i, label %_ZNSt7__cxx1112basic_stringIcSt11char_traitsIcESaIcEED2Ev.exit

_ZNKSt7__cxx1112basic_stringIcSt11char_traitsIcESaIcEE11_M_is_localEv.exit.thread.i.i: ; preds = %9
  %14 = getelementptr inbounds nuw i8, ptr %4, i64 8
  %15 = load i64, ptr %14, align 8
  %16 = icmp ult i64 %15, 16
  call void @llvm.assume(i1 %16)
  call void @llvm.lifetime.end.p0(i64 32, ptr nonnull %4) #17
  br i1 %.0, label %19, label %20

_ZNSt7__cxx1112basic_stringIcSt11char_traitsIcESaIcEED2Ev.exit: ; preds = %9
  %17 = load i64, ptr %12, align 8
  %18 = add i64 %17, 1
  call void @_ZdlPvm(ptr noundef %11, i64 noundef %18) #19
  call void @llvm.lifetime.end.p0(i64 32, ptr nonnull %4) #17
  br i1 %.0, label %19, label %20

19:                                               ; preds = %_ZNKSt7__cxx1112basic_stringIcSt11char_traitsIcESaIcEE11_M_is_localEv.exit.thread.i.i, %_ZNSt7__cxx1112basic_stringIcSt11char_traitsIcESaIcEED2Ev.exit.thread, %_ZNSt7__cxx1112basic_stringIcSt11char_traitsIcESaIcEED2Ev.exit
  %.pn11 = phi { ptr, i32 } [ %8, %_ZNSt7__cxx1112basic_stringIcSt11char_traitsIcESaIcEED2Ev.exit.thread ], [ %10, %_ZNSt7__cxx1112basic_stringIcSt11char_traitsIcESaIcEED2Ev.exit ], [ %10, %_ZNKSt7__cxx1112basic_stringIcSt11char_traitsIcESaIcEE11_M_is_localEv.exit.thread.i.i ]
  call void @__cxa_free_exception(ptr %5) #17
  br label %20

20:                                               ; preds = %_ZNKSt7__cxx1112basic_stringIcSt11char_traitsIcESaIcEE11_M_is_localEv.exit.thread.i.i, %_ZNSt7__cxx1112basic_stringIcSt11char_traitsIcESaIcEED2Ev.exit, %19
  %.pn10 = phi { ptr, i32 } [ %10, %_ZNSt7__cxx1112basic_stringIcSt11char_traitsIcESaIcEED2Ev.exit ], [ %.pn11, %19 ], [ %10, %_ZNKSt7__cxx1112basic_stringIcSt11char_traitsIcESaIcEE11_M_is_localEv.exit.thread.i.i ]
  resume { ptr, i32 } %.pn10

21:                                               ; preds = %7
  unreachable
}